target datalayout = "e-m:e-p270:32:32-p271:32:32-p272:64:64-i64:64-i128:128-f80:128-n8:16:32:64-S128"
target triple = "x86_64-pc-linux-gnu"

%struct.expert_field = type { i32, i32 }

@hf_gsm_a_spare_bits = external global i32, align 4
@ei_gsm_a_dtap_missing_mandatory_element = internal global %struct.expert_field zeroinitializer, align 4
@.str.824 = private unnamed_addr constant [1 x i8] zeroinitializer, align 1
@.str.1325 = private unnamed_addr constant [62 x i8] c"Missing Mandatory element %s%s, rest of dissection is suspect\00", align 1

; Function Attrs: null_pointer_is_valid sspstrong uwtable
define internal void @dtap_gcc_set_param(ptr noundef %0, ptr noundef %1, ptr noundef %2, i32 noundef %3, i32 noundef %4) #1 {
  %6 = alloca ptr, align 8
  %7 = alloca ptr, align 8
  %8 = alloca ptr, align 8
  %9 = alloca i32, align 4
  %10 = alloca i32, align 4
  %11 = alloca i32, align 4
  %12 = alloca i32, align 4
  %13 = alloca i32, align 4
  store ptr %0, ptr %6, align 8
  store ptr %1, ptr %7, align 8
  store ptr %2, ptr %8, align 8
  store i32 %3, ptr %9, align 4
  store i32 %4, ptr %10, align 4
  call void @llvm.lifetime.start.p0(i64 4, ptr %11) #7
  call void @llvm.lifetime.start.p0(i64 4, ptr %12) #7
  call void @llvm.lifetime.start.p0(i64 4, ptr %13) #7
  %14 = load i32, ptr %9, align 4
  store i32 %14, ptr %11, align 4
  %15 = load i32, ptr %10, align 4
  store i32 %15, ptr %13, align 4
  %16 = load ptr, ptr %7, align 8
  %17 = load i32, ptr @hf_gsm_a_spare_bits, align 4
  %18 = load ptr, ptr %6, align 8
  %19 = load i32, ptr %11, align 4
  %20 = shl i32 %19, 3
  %21 = call ptr @proto_tree_add_bits_item(ptr noundef %16, i32 noundef %17, ptr noundef %18, i32 noundef %20, i32 noundef 4, i32 noundef 0)
  %22 = load i32, ptr %13, align 4
  %23 = icmp sgt i32 %22, 0
  br i1 %23, label %24, label %39

24:                                               ; preds = %5
  %25 = load ptr, ptr %6, align 8
  %26 = load ptr, ptr %7, align 8
  %27 = load ptr, ptr %8, align 8
  %28 = load i32, ptr %11, align 4
  %29 = call zeroext i16 @elem_v(ptr noundef %25, ptr noundef %26, ptr noundef %27, i32 noundef 1, i32 noundef 89, i32 noundef %28, ptr noundef null)
  %30 = zext i16 %29 to i32
  store i32 %30, ptr %12, align 4
  %31 = icmp ugt i32 %30, 0
  br i1 %31, label %32, label %39

32:                                               ; preds = %24
  %33 = load i32, ptr %12, align 4
  %34 = load i32, ptr %11, align 4
  %35 = add i32 %34, %33
  store i32 %35, ptr %11, align 4
  %36 = load i32, ptr %12, align 4
  %37 = load i32, ptr %13, align 4
  %38 = sub i32 %37, %36
  store i32 %38, ptr %13, align 4
  br label %46

39:                                               ; preds = %24, %5
  %40 = load ptr, ptr %7, align 8
  %41 = load ptr, ptr %8, align 8
  %42 = load ptr, ptr %6, align 8
  %43 = load i32, ptr %11, align 4
  %44 = call ptr @get_gsm_a_msg_string(i32 noundef 1, i32 noundef 89)
  %45 = call ptr (ptr, ptr, ptr, ptr, i32, i32, ptr, ...) @proto_tree_add_expert_format(ptr noundef %40, ptr noundef %41, ptr noundef @ei_gsm_a_dtap_missing_mandatory_element, ptr noundef %42, i32 noundef %43, i32 noundef 0, ptr noundef @.str.1325, ptr noundef %44, ptr noundef @.str.824)
  br label %46

46:                                               ; preds = %39, %32
  call void @llvm.lifetime.end.p0(i64 4, ptr %13) #7
  call void @llvm.lifetime.end.p0(i64 4, ptr %12) #7
  call void @llvm.lifetime.end.p0(i64 4, ptr %11) #7
  ret void
}